target datalayout = "e-m:e-p270:32:32-p271:32:32-p272:64:64-i64:64-i128:128-f80:128-n8:16:32:64-S128"
target triple = "x86_64-pc-linux-gnu"

%struct.H5C_class_t = type { i32, ptr, i32, i32, ptr, ptr, ptr, ptr, ptr, ptr, ptr, ptr, ptr, ptr }
%struct.H5SM_index_header_t = type { i32, i64, i64, i64, i64, i32, i64, i64, i64 }

@H5SM_init_g = global i8 0, align 1
@H5_libterm_g = external global i8, align 1
@.str.4 = private unnamed_addr constant [98 x i8] c"generated/home/dtcxzyw/WorkSpace/Projects/compilers/llvm-opt-benchmark/bench/hdf5/hdf5/src/H5SM.c\00", align 1
@H5E_SOHM_g = external global i64, align 8
@H5E_CANTGET_g = external global i64, align 8
@H5E_CANTDELETE_g = external global i64, align 8
@H5AC_SOHM_LIST = external constant [1 x %struct.H5C_class_t], align 16
@__func__.H5SM__delete_index = private unnamed_addr constant [19 x i8] c"H5SM__delete_index\00", align 1
@.str.114 = private unnamed_addr constant [55 x i8] c"unable to check metadata cache status for direct block\00", align 1
@H5E_CANTREMOVE_g = external global i64, align 8
@.str.115 = private unnamed_addr constant [39 x i8] c"unable to remove list index from cache\00", align 1
@.str.116 = private unnamed_addr constant [24 x i8] c"unable to delete B-tree\00", align 1
@.str.117 = private unnamed_addr constant [30 x i8] c"unable to delete fractal heap\00", align 1

; Function Attrs: nounwind uwtable
define internal i32 @H5SM__delete_index(ptr noundef %0, ptr noundef %1, i1 noundef zeroext %2) #0 {
  %4 = alloca i32, align 4
  %5 = alloca ptr, align 8
  %6 = alloca ptr, align 8
  %7 = alloca i8, align 1
  %8 = alloca i32, align 4
  %9 = alloca i8, align 1
  %10 = alloca i32, align 4
  %11 = alloca i32, align 4
  store ptr %0, ptr %5, align 8, !tbaa !3
  store ptr %1, ptr %6, align 8, !tbaa !57
  %12 = zext i1 %2 to i8
  store i8 %12, ptr %7, align 1, !tbaa !18
  call void @llvm.lifetime.start.p0(i64 4, ptr %8) #8
  store i32 0, ptr %8, align 4, !tbaa !14
  call void @llvm.lifetime.start.p0(i64 1, ptr %9) #8
  store i8 0, ptr %9, align 1, !tbaa !18
  %13 = load i8, ptr @H5SM_init_g, align 1, !tbaa !18, !range !20, !noundef !21
  %14 = trunc i8 %13 to i1
  br i1 %14, label %19, label %15

15:                                               ; preds = %3
  %16 = load i8, ptr @H5_libterm_g, align 1, !tbaa !18, !range !20, !noundef !21
  %17 = trunc i8 %16 to i1
  %18 = xor i1 %17, true
  br label %19

19:                                               ; preds = %15, %3
  %20 = phi i1 [ true, %3 ], [ %18, %15 ]
  %21 = xor i1 %20, true
  %22 = xor i1 %21, true
  %23 = zext i1 %22 to i32
  %24 = sext i32 %23 to i64
  %25 = call i64 @llvm.expect.i64(i64 %24, i64 1)
  %26 = icmp ne i64 %25, 0
  br i1 %26, label %27, label %169

27:                                               ; preds = %19
  %28 = load ptr, ptr %6, align 8, !tbaa !57
  %29 = getelementptr inbounds nuw %struct.H5SM_index_header_t, ptr %28, i32 0, i32 5
  %30 = load i32, ptr %29, align 8, !tbaa !43
  %31 = icmp eq i32 %30, 0
  br i1 %31, label %32, label %93

32:                                               ; preds = %27
  call void @llvm.lifetime.start.p0(i64 4, ptr %10) #8
  store i32 0, ptr %10, align 4, !tbaa !14
  %33 = load ptr, ptr %5, align 8, !tbaa !3
  %34 = load ptr, ptr %6, align 8, !tbaa !57
  %35 = getelementptr inbounds nuw %struct.H5SM_index_header_t, ptr %34, i32 0, i32 6
  %36 = load i64, ptr %35, align 8, !tbaa !40
  %37 = call i32 @H5AC_get_entry_status(ptr noundef %33, i64 noundef %36, ptr noundef %10)
  %38 = icmp slt i32 %37, 0
  br i1 %38, label %39, label %58

39:                                               ; preds = %32
  br label %40

40:                                               ; preds = %39
  br label %41

41:                                               ; preds = %40
  br label %42

42:                                               ; preds = %41
  %43 = load i64, ptr @H5E_SOHM_g, align 8, !tbaa !16
  %44 = load i64, ptr @H5E_CANTGET_g, align 8, !tbaa !16
  %45 = call i32 (ptr, ptr, i32, i64, i64, ptr, ...) @H5E_printf_stack(ptr noundef @.str.4, ptr noundef @__func__.H5SM__delete_index, i32 noundef 558, i64 noundef %43, i64 noundef %44, ptr noundef @.str.114)
  br label %46

46:                                               ; preds = %42
  br label %47

47:                                               ; preds = %46
  store i8 1, ptr %9, align 1, !tbaa !18
  %48 = load i8, ptr %9, align 1, !tbaa !18, !range !20, !noundef !21
  %49 = trunc i8 %48 to i1
  %50 = zext i1 %49 to i8
  store i8 %50, ptr %9, align 1, !tbaa !18
  br label %51

51:                                               ; preds = %47
  br label %52

52:                                               ; preds = %51
  br label %53

53:                                               ; preds = %52
  store i32 -1, ptr %8, align 4, !tbaa !14
  store i32 10, ptr %11, align 4
  br label %90

54:                                               ; No predecessors!
  br label %55

55:                                               ; preds = %54
  br label %56

56:                                               ; preds = %55
  br label %57

57:                                               ; preds = %56
  br label %58

58:                                               ; preds = %57, %32
  %59 = load i32, ptr %10, align 4, !tbaa !14
  %60 = and i32 %59, 1
  %61 = icmp ne i32 %60, 0
  br i1 %61, label %62, label %89

62:                                               ; preds = %58
  %63 = load ptr, ptr %5, align 8, !tbaa !3
  %64 = load ptr, ptr %6, align 8, !tbaa !57
  %65 = getelementptr inbounds nuw %struct.H5SM_index_header_t, ptr %64, i32 0, i32 6
  %66 = load i64, ptr %65, align 8, !tbaa !40
  %67 = call i32 @H5AC_expunge_entry(ptr noundef %63, ptr noundef @H5AC_SOHM_LIST, i64 noundef %66, i32 noundef 256)
  %68 = icmp slt i32 %67, 0
  br i1 %68, label %69, label %88

69:                                               ; preds = %62
  br label %70

70:                                               ; preds = %69
  br label %71

71:                                               ; preds = %70
  br label %72

72:                                               ; preds = %71
  %73 = load i64, ptr @H5E_SOHM_g, align 8, !tbaa !16
  %74 = load i64, ptr @H5E_CANTREMOVE_g, align 8, !tbaa !16
  %75 = call i32 (ptr, ptr, i32, i64, i64, ptr, ...) @H5E_printf_stack(ptr noundef @.str.4, ptr noundef @__func__.H5SM__delete_index, i32 noundef 568, i64 noundef %73, i64 noundef %74, ptr noundef @.str.115)
  br label %76

76:                                               ; preds = %72
  br label %77

77:                                               ; preds = %76
  store i8 1, ptr %9, align 1, !tbaa !18
  %78 = load i8, ptr %9, align 1, !tbaa !18, !range !20, !noundef !21
  %79 = trunc i8 %78 to i1
  %80 = zext i1 %79 to i8
  store i8 %80, ptr %9, align 1, !tbaa !18
  br label %81

81:                                               ; preds = %77
  br label %82

82:                                               ; preds = %81
  br label %83

83:                                               ; preds = %82
  store i32 -1, ptr %8, align 4, !tbaa !14
  store i32 10, ptr %11, align 4
  br label %90

84:                                               ; No predecessors!
  br label %85

85:                                               ; preds = %84
  br label %86

86:                                               ; preds = %85
  br label %87

87:                                               ; preds = %86
  br label %88

88:                                               ; preds = %87, %62
  br label %89

89:                                               ; preds = %88, %58
  store i32 0, ptr %11, align 4
  br label %90

90:                                               ; preds = %83, %53, %89
  call void @llvm.lifetime.end.p0(i64 4, ptr %10) #8
  %91 = load i32, ptr %11, align 4
  switch i32 %91, label %171 [
    i32 0, label %92
    i32 10, label %168
  ]

92:                                               ; preds = %90
  br label %129

93:                                               ; preds = %27
  %94 = load ptr, ptr %5, align 8, !tbaa !3
  %95 = load ptr, ptr %6, align 8, !tbaa !57
  %96 = getelementptr inbounds nuw %struct.H5SM_index_header_t, ptr %95, i32 0, i32 6
  %97 = load i64, ptr %96, align 8, !tbaa !40
  %98 = load ptr, ptr %5, align 8, !tbaa !3
  %99 = call i32 @H5B2_delete(ptr noundef %94, i64 noundef %97, ptr noundef %98, ptr noundef null, ptr noundef null)
  %100 = icmp slt i32 %99, 0
  br i1 %100, label %101, label %120

101:                                              ; preds = %93
  br label %102

102:                                              ; preds = %101
  br label %103

103:                                              ; preds = %102
  br label %104

104:                                              ; preds = %103
  %105 = load i64, ptr @H5E_SOHM_g, align 8, !tbaa !16
  %106 = load i64, ptr @H5E_CANTDELETE_g, align 8, !tbaa !16
  %107 = call i32 (ptr, ptr, i32, i64, i64, ptr, ...) @H5E_printf_stack(ptr noundef @.str.4, ptr noundef @__func__.H5SM__delete_index, i32 noundef 576, i64 noundef %105, i64 noundef %106, ptr noundef @.str.116)
  br label %108

108:                                              ; preds = %104
  br label %109

109:                                              ; preds = %108
  store i8 1, ptr %9, align 1, !tbaa !18
  %110 = load i8, ptr %9, align 1, !tbaa !18, !range !20, !noundef !21
  %111 = trunc i8 %110 to i1
  %112 = zext i1 %111 to i8
  store i8 %112, ptr %9, align 1, !tbaa !18
  br label %113

113:                                              ; preds = %109
  br label %114

114:                                              ; preds = %113
  br label %115

115:                                              ; preds = %114
  store i32 -1, ptr %8, align 4, !tbaa !14
  br label %168

116:                                              ; No predecessors!
  br label %117

117:                                              ; preds = %116
  br label %118

118:                                              ; preds = %117
  br label %119

119:                                              ; preds = %118
  br label %120

120:                                              ; preds = %119, %93
  %121 = load ptr, ptr %6, align 8, !tbaa !57
  %122 = getelementptr inbounds nuw %struct.H5SM_index_header_t, ptr %121, i32 0, i32 3
  %123 = load i64, ptr %122, align 8, !tbaa !35
  %124 = icmp ugt i64 %123, 0
  br i1 %124, label %125, label %128

125:                                              ; preds = %120
  %126 = load ptr, ptr %6, align 8, !tbaa !57
  %127 = getelementptr inbounds nuw %struct.H5SM_index_header_t, ptr %126, i32 0, i32 5
  store i32 0, ptr %127, align 8, !tbaa !43
  br label %128

128:                                              ; preds = %125, %120
  br label %129

129:                                              ; preds = %128, %92
  %130 = load i8, ptr %7, align 1, !tbaa !18, !range !20, !noundef !21
  %131 = trunc i8 %130 to i1
  %132 = zext i1 %131 to i32
  %133 = icmp eq i32 %132, 1
  br i1 %133, label %134, label %163

134:                                              ; preds = %129
  %135 = load ptr, ptr %5, align 8, !tbaa !3
  %136 = load ptr, ptr %6, align 8, !tbaa !57
  %137 = getelementptr inbounds nuw %struct.H5SM_index_header_t, ptr %136, i32 0, i32 7
  %138 = load i64, ptr %137, align 8, !tbaa !41
  %139 = call i32 @H5HF_delete(ptr noundef %135, i64 noundef %138)
  %140 = icmp slt i32 %139, 0
  br i1 %140, label %141, label %160

141:                                              ; preds = %134
  br label %142

142:                                              ; preds = %141
  br label %143

143:                                              ; preds = %142
  br label %144

144:                                              ; preds = %143
  %145 = load i64, ptr @H5E_SOHM_g, align 8, !tbaa !16
  %146 = load i64, ptr @H5E_CANTDELETE_g, align 8, !tbaa !16
  %147 = call i32 (ptr, ptr, i32, i64, i64, ptr, ...) @H5E_printf_stack(ptr noundef @.str.4, ptr noundef @__func__.H5SM__delete_index, i32 noundef 586, i64 noundef %145, i64 noundef %146, ptr noundef @.str.117)
  br label %148

148:                                              ; preds = %144
  br label %149

149:                                              ; preds = %148
  store i8 1, ptr %9, align 1, !tbaa !18
  %150 = load i8, ptr %9, align 1, !tbaa !18, !range !20, !noundef !21
  %151 = trunc i8 %150 to i1
  %152 = zext i1 %151 to i8
  store i8 %152, ptr %9, align 1, !tbaa !18
  br label %153

153:                                              ; preds = %149
  br label %154

154:                                              ; preds = %153
  br label %155

155:                                              ; preds = %154
  store i32 -1, ptr %8, align 4, !tbaa !14
  br label %168

156:                                              ; No predecessors!
  br label %157

157:                                              ; preds = %156
  br label %158

158:                                              ; preds = %157
  br label %159

159:                                              ; preds = %158
  br label %160

160:                                              ; preds = %159, %134
  %161 = load ptr, ptr %6, align 8, !tbaa !57
  %162 = getelementptr inbounds nuw %struct.H5SM_index_header_t, ptr %161, i32 0, i32 7
  store i64 -1, ptr %162, align 8, !tbaa !41
  br label %163

163:                                              ; preds = %160, %129
  %164 = load ptr, ptr %6, align 8, !tbaa !57
  %165 = getelementptr inbounds nuw %struct.H5SM_index_header_t, ptr %164, i32 0, i32 6
  store i64 -1, ptr %165, align 8, !tbaa !40
  %166 = load ptr, ptr %6, align 8, !tbaa !57
  %167 = getelementptr inbounds nuw %struct.H5SM_index_header_t, ptr %166, i32 0, i32 4
  store i64 0, ptr %167, align 8, !tbaa !42
  br label %168

168:                                              ; preds = %163, %90, %155, %115
  br label %169

169:                                              ; preds = %168, %19
  %170 = load i32, ptr %8, align 4, !tbaa !14
  store i32 %170, ptr %4, align 4
  store i32 1, ptr %11, align 4
  br label %171

171:                                              ; preds = %169, %90
  call void @llvm.lifetime.end.p0(i64 1, ptr %9) #8
  call void @llvm.lifetime.end.p0(i64 4, ptr %8) #8
  %172 = load i32, ptr %4, align 4
  ret i32 %172
}