; Function Attrs: nounwind uwtable
define internal fastcc range(i32 -1, 1) i32 @H5SM__delete_index(ptr noundef %0, ptr noundef captures(none) %1, i1 noundef zeroext %2) unnamed_addr #0 {
  %4 = alloca i32, align 4
  %5 = load i8, ptr @H5SM_init_g, align 1, !tbaa !9, !range !11, !noundef !12
  %6 = trunc nuw i8 %5 to i1
  %7 = load i8, ptr @H5_libterm_g, align 1, !range !11
  %8 = trunc nuw i8 %7 to i1
  %9 = xor i1 %8, true
  %10 = select i1 %6, i1 true, i1 %9
  br i1 %10, label %11, label %63, !prof !13

11:                                               ; preds = %3
  %12 = getelementptr inbounds nuw i8, ptr %1, i64 40
  %13 = load i32, ptr %12, align 8, !tbaa !35
  %14 = icmp eq i32 %13, 0
  br i1 %14, label %15, label %36

15:                                               ; preds = %11
  call void @llvm.lifetime.start.p0(i64 4, ptr nonnull %4) #11
  store i32 0, ptr %4, align 4, !tbaa !3
  %16 = getelementptr inbounds nuw i8, ptr %1, i64 48
  %17 = load i64, ptr %16, align 8, !tbaa !51
  %18 = call i32 @H5AC_get_entry_status(ptr noundef %0, i64 noundef %17, ptr noundef nonnull %4) #11
  %19 = icmp slt i32 %18, 0
  br i1 %19, label %20, label %24

20:                                               ; preds = %15
  %21 = load i64, ptr @H5E_SOHM_g, align 8, !tbaa !7
  %22 = load i64, ptr @H5E_CANTGET_g, align 8, !tbaa !7
  %23 = call i32 (ptr, ptr, i32, i64, i64, ptr, ...) @H5E_printf_stack(ptr noundef nonnull @.str.4, ptr noundef nonnull @__func__.H5SM__delete_index, i32 noundef 558, i64 noundef %21, i64 noundef %22, ptr noundef nonnull @.str.114) #11
  br label %35

24:                                               ; preds = %15
  %25 = load i32, ptr %4, align 4, !tbaa !3
  %26 = and i32 %25, 1
  %.not24 = icmp eq i32 %26, 0
  br i1 %.not24, label %.thread, label %27

27:                                               ; preds = %24
  %28 = load i64, ptr %16, align 8, !tbaa !51
  %29 = call i32 @H5AC_expunge_entry(ptr noundef %0, ptr noundef nonnull @H5AC_SOHM_LIST, i64 noundef %28, i32 noundef 256) #11
  %30 = icmp slt i32 %29, 0
  br i1 %30, label %31, label %.thread

31:                                               ; preds = %27
  %32 = load i64, ptr @H5E_SOHM_g, align 8, !tbaa !7
  %33 = load i64, ptr @H5E_CANTREMOVE_g, align 8, !tbaa !7
  %34 = call i32 (ptr, ptr, i32, i64, i64, ptr, ...) @H5E_printf_stack(ptr noundef nonnull @.str.4, ptr noundef nonnull @__func__.H5SM__delete_index, i32 noundef 568, i64 noundef %32, i64 noundef %33, ptr noundef nonnull @.str.115) #11
  br label %35

.thread:                                          ; preds = %27, %24
  call void @llvm.lifetime.end.p0(i64 4, ptr nonnull %4) #11
  br label %49

35:                                               ; preds = %31, %20
  call void @llvm.lifetime.end.p0(i64 4, ptr nonnull %4) #11
  br label %63

36:                                               ; preds = %11
  %37 = getelementptr inbounds nuw i8, ptr %1, i64 48
  %38 = load i64, ptr %37, align 8, !tbaa !51
  %39 = tail call i32 @H5B2_delete(ptr noundef %0, i64 noundef %38, ptr noundef %0, ptr noundef null, ptr noundef null) #11
  %40 = icmp slt i32 %39, 0
  br i1 %40, label %41, label %45

41:                                               ; preds = %36
  %42 = load i64, ptr @H5E_SOHM_g, align 8, !tbaa !7
  %43 = load i64, ptr @H5E_CANTDELETE_g, align 8, !tbaa !7
  %44 = tail call i32 (ptr, ptr, i32, i64, i64, ptr, ...) @H5E_printf_stack(ptr noundef nonnull @.str.4, ptr noundef nonnull @__func__.H5SM__delete_index, i32 noundef 576, i64 noundef %42, i64 noundef %43, ptr noundef nonnull @.str.116) #11
  br label %63

45:                                               ; preds = %36
  %46 = getelementptr inbounds nuw i8, ptr %1, i64 24
  %47 = load i64, ptr %46, align 8, !tbaa !29
  %.not = icmp eq i64 %47, 0
  br i1 %.not, label %49, label %48

48:                                               ; preds = %45
  store i32 0, ptr %12, align 8, !tbaa !35
  br label %49

49:                                               ; preds = %.thread, %45, %48
  br i1 %2, label %50, label %60

50:                                               ; preds = %49
  %51 = getelementptr inbounds nuw i8, ptr %1, i64 56
  %52 = load i64, ptr %51, align 8, !tbaa !47
  %53 = call i32 @H5HF_delete(ptr noundef %0, i64 noundef %52) #11
  %54 = icmp slt i32 %53, 0
  br i1 %54, label %55, label %59

55:                                               ; preds = %50
  %56 = load i64, ptr @H5E_SOHM_g, align 8, !tbaa !7
  %57 = load i64, ptr @H5E_CANTDELETE_g, align 8, !tbaa !7
  %58 = call i32 (ptr, ptr, i32, i64, i64, ptr, ...) @H5E_printf_stack(ptr noundef nonnull @.str.4, ptr noundef nonnull @__func__.H5SM__delete_index, i32 noundef 586, i64 noundef %56, i64 noundef %57, ptr noundef nonnull @.str.117) #11
  br label %63

59:                                               ; preds = %50
  store i64 -1, ptr %51, align 8, !tbaa !47
  br label %60

60:                                               ; preds = %59, %49
  %61 = getelementptr inbounds nuw i8, ptr %1, i64 48
  store i64 -1, ptr %61, align 8, !tbaa !51
  %62 = getelementptr inbounds nuw i8, ptr %1, i64 32
  store i64 0, ptr %62, align 8, !tbaa !34
  br label %63

63:                                               ; preds = %35, %3, %60, %55, %41
  %.023 = phi i32 [ -1, %35 ], [ -1, %55 ], [ 0, %60 ], [ -1, %41 ], [ 0, %3 ]
  ret i32 %.023
}